; Function Attrs: mustprogress uwtable
define hidden noundef double @_ZN2cv8ximgproc20FastLineDetectorImpl13distPointLineERKNS_3MatERS2_(ptr noundef nonnull readnone align 8 captures(none) dereferenceable(45) %0, ptr noundef nonnull align 8 dereferenceable(96) %1, ptr noundef nonnull align 8 dereferenceable(96) %2) local_unnamed_addr #3 align 2 personality ptr @__gxx_personality_v0 {
  %4 = alloca %"class.cv::_InputArray", align 8
  %5 = getelementptr inbounds nuw i8, ptr %2, i64 16
  %6 = load ptr, ptr %5, align 8, !tbaa !65
  %7 = getelementptr inbounds nuw i8, ptr %2, i64 72
  %8 = load ptr, ptr %7, align 8, !tbaa !97
  %9 = load double, ptr %6, align 8, !tbaa !141
  %10 = load i64, ptr %8, align 8, !tbaa !64
  %11 = getelementptr inbounds nuw i8, ptr %6, i64 %10
  %12 = load double, ptr %11, align 8, !tbaa !141
  %13 = fmul double %12, %12
  %14 = tail call double @llvm.fmuladd.f64(double %9, double %9, double %13)
  %sqrt = tail call double @llvm.sqrt.f64(double %14)
  %15 = fdiv double %9, %sqrt
  store double %15, ptr %6, align 8, !tbaa !141
  %16 = fdiv double %12, %sqrt
  store double %16, ptr %11, align 8, !tbaa !141
  %17 = shl i64 %10, 1
  %18 = getelementptr inbounds nuw i8, ptr %6, i64 %17
  %19 = load double, ptr %18, align 8, !tbaa !141
  %20 = fdiv double %19, %sqrt
  store double %20, ptr %18, align 8, !tbaa !141
  call void @llvm.lifetime.start.p0(i64 24, ptr nonnull %4) #28
  %21 = getelementptr inbounds nuw i8, ptr %4, i64 16
  store i32 0, ptr %21, align 8, !tbaa !79
  %22 = getelementptr inbounds nuw i8, ptr %4, i64 20
  store i32 0, ptr %22, align 4, !tbaa !80
  store i32 16842752, ptr %4, align 8, !tbaa !81
  %23 = getelementptr inbounds nuw i8, ptr %4, i64 8
  store ptr %1, ptr %23, align 8, !tbaa !41
  %24 = call noundef double @_ZNK2cv3Mat3dotERKNS_11_InputArrayE(ptr noundef nonnull align 8 dereferenceable(96) %2, ptr noundef nonnull align 8 dereferenceable(24) %4)
  call void @llvm.lifetime.end.p0(i64 24, ptr nonnull %4) #28
  ret double %24
}